Certificate:
    Data:
        Version: 3 (0x2)
        Serial Number: 9974010075738841111 (0x8a6acd51be94a017)
    Signature Algorithm: sha256WithRSAEncryption
        Issuer: C=AU, ST=Some-State, O=Internet Widgits Pty Ltd, CN=CA Owner/emailAddress=ca.owner@example.com
        Validity
            Not Before: Sep  7 09:54:21 2017 GMT
            Not After : Sep  5 09:54:21 2027 GMT
        Subject: C=AU, ST=Some-State, O=Internet Widgits Pty Ltd, CN=altuser
        Subject Public Key Info:
            Public Key Algorithm: rsaEncryption
                Public-Key: (512 bit)
                Modulus:
                    00:eb:38:ac:b0:ef:cb:5a:45:02:69:19:cb:9a:f8:
                    2d:1a:2a:b1:92:ec:15:fb:65:06:78:46:9e:f3:0a:
                    8d:be:34:e6:5b:f3:c7:20:01:55:e5:db:26:4f:d8:
                    79:da:87:eb:2c:04:39:0b:26:45:06:d7:81:1e:45:
                    e2:24:61:c6:0f
                Exponent: 65537 (0x10001)
        X509v3 extensions:
            X509v3 Basic Constraints: critical
                CA:FALSE
            X509v3 Subject Alternative Name: 
                email:altuser@example.com
    Signature Algorithm: sha256WithRSAEncryption
         45:8c:44:78:a6:d8:55:26:f1:e1:3f:a2:44:90:6e:51:90:5a:
         3a:d5:8a:87:d5:d7:5b:07:cd:23:79:50:05:f8:bd:14:f7:ad:
         68:f2:45:71:b8:05:b2:d0:d0:bd:83:76:c4:bf:36:f4:8c:9a:
         c7:ca:41:4f:b3:40:2e:7f:31:a7:12:27:08:71:6a:0f:0d:fa:
         43:85:37:46:8f:3c:7e:5d:97:cf:18:e6:50:57:39:65:22:db:
         95:22:e4:5c:19:3c:53:0d:ce:e5:bb:df:5c:d6:77:96:f8:b4:
         a2:63:b2:21:15:36:e7:3c:5f:b4:01:b8:aa:db:2e:bf:d3:fd:
         a4:35
-----BEGIN CERTIFICATE-----
MIICPjCCAaegAwIBAgIJAIpqzVG+lKAXMA0GCSqGSIb3DQEBCwUAMH0xCzAJBgNV
BAYTAkFVMRMwEQYDVQQIDApTb21lLVN0YXRlMSEwHwYDVQQKDBhJbnRlcm5ldCBX
aWRnaXRzIFB0eSBMdGQxETAPBgNVBAMMCENBIE93bmVyMSMwIQYJKoZIhvcNAQkB
FhRjYS5vd25lckBleGFtcGxlLmNvbTAeFw0xNzA5MDcwOTU0MjFaFw0yNzA5MDUw
OTU0MjFaMFcxCzAJBgNVBAYTAkFVMRMwEQYDVQQIDApTb21lLVN0YXRlMSEwHwYD
VQQKDBhJbnRlcm5ldCBXaWRnaXRzIFB0eSBMdGQxEDAOBgNVBAMMB2FsdHVzZXIw
XDANBgkqhkiG9w0BAQEFAANLADBIAkEA6zissO/LWkUCaRnLmvgtGiqxkuwV+2UG
eEae8wqNvjTmW/PHIAFV5dsmT9h52ofrLAQ5CyZFBteBHkXiJGHGDwIDAQABozAw
LjAMBgNVHRMBAf8EAjAAMB4GA1UdEQQXMBWBE2FsdHVzZXJAZXhhbXBsZS5jb20w
DQYJKoZIhvcNAQELBQADgYEARYxEeKbYVSbx4T+iRJBuUZBaOtWKh9XXWwfNI3lQ
Bfi9FPetaPJFcbgFstDQvYN2xL829Iyax8pBT7NALn8xpxInCHFqDw36Q4U3Ro88
fl2XzxjmUFc5ZSLblSLkXBk8Uw3O5bvfXNZ3lvi0omOyIRU25zxftAG4qtsuv9P9
pDU=
-----END CERTIFICATE-----
