Certificate:
    Data:
        Version: 1 (0x0)
        Serial Number: 9974010075738841110 (0x8a6acd51be94a016)
    Signature Algorithm: sha1WithRSAEncryption
        Issuer: C=AU, ST=Some-State, O=Internet Widgits Pty Ltd, CN=CA Owner/emailAddress=ca.owner@example.com
        Validity
            Not Before: Aug 28 21:41:07 2013 GMT
            Not After : Aug 28 21:41:07 2023 GMT
        Subject: C=AU, ST=Some-State, O=Internet Widgits Pty Ltd, CN=Enoch Root/emailAddress=root@example.com
        Subject Public Key Info:
            Public Key Algorithm: rsaEncryption
                Public-Key: (512 bit)
                Modulus:
                    00:b2:77:b9:bc:09:7d:14:8e:6b:6f:7e:33:a9:95:
                    21:5d:f3:3c:91:61:f1:bc:5c:1d:7e:e7:54:25:e8:
                    cb:5f:b7:18:0e:23:26:00:42:09:bd:89:da:5c:06:
                    cb:52:08:43:f6:4e:fe:dd:f8:0a:8a:95:35:8f:4a:
                    25:16:da:e6:bf
                Exponent: 65537 (0x10001)
    Signature Algorithm: sha1WithRSAEncryption
         1a:cd:7e:0e:e0:6f:90:b7:22:0e:4d:79:4d:6a:9b:ac:a1:6a:
         ab:85:32:9c:86:9c:d2:10:96:f7:e0:00:2c:7d:3c:16:a4:ff:
         dd:9e:37:fb:a3:7a:43:ab:2f:ee:c4:ff:be:77:0f:40:f8:0e:
         45:3e:48:46:bf:ec:e1:b0:46:8d:13:37:7a:a6:d1:7c:16:cb:
         28:6b:37:88:4d:0a:12:6b:87:b9:7c:d9:c4:d7:57:93:b9:f6:
         21:26:1b:32:88:1d:cd:84:0f:6a:f9:05:0a:76:01:de:5e:99:
         86:10:fc:7d:ee:d5:70:b2:44:99:41:0a:d7:0e:e8:5b:c9:ca:
         10:39
-----BEGIN CERTIFICATE-----
MIICKzCCAZQCCQCKas1RvpSgFjANBgkqhkiG9w0BAQUFADB9MQswCQYDVQQGEwJB
VTETMBEGA1UECAwKU29tZS1TdGF0ZTEhMB8GA1UECgwYSW50ZXJuZXQgV2lkZ2l0
cyBQdHkgTHRkMREwDwYDVQQDDAhDQSBPd25lcjEjMCEGCSqGSIb3DQEJARYUY2Eu
b3duZXJAZXhhbXBsZS5jb20wHhcNMTMwODI4MjE0MTA3WhcNMjMwODI4MjE0MTA3
WjB7MQswCQYDVQQGEwJBVTETMBEGA1UECBMKU29tZS1TdGF0ZTEhMB8GA1UEChMY
SW50ZXJuZXQgV2lkZ2l0cyBQdHkgTHRkMRMwEQYDVQQDEwpFbm9jaCBSb290MR8w
HQYJKoZIhvcNAQkBFhByb290QGV4YW1wbGUuY29tMFwwDQYJKoZIhvcNAQEBBQAD
SwAwSAJBALJ3ubwJfRSOa29+M6mVIV3zPJFh8bxcHX7nVCXoy1+3GA4jJgBCCb2J
2lwGy1IIQ/ZO/t34CoqVNY9KJRba5r8CAwEAATANBgkqhkiG9w0BAQUFAAOBgQAa
zX4O4G+QtyIOTXlNapusoWqrhTKchpzSEJb34AAsfTwWpP/dnjf7o3pDqy/uxP++
dw9A+A5FPkhGv+zhsEaNEzd6ptF8FssoazeITQoSa4e5fNnE11eTufYhJhsyiB3N
hA9q+QUKdgHeXpmGEPx97tVwskSZQQrXDuhbycoQOQ==
-----END CERTIFICATE-----
