Certificate:
    Data:
        Version: 3 (0x2)
        Serial Number:
            8a:6a:cd:51:be:94:a0:16
        Signature Algorithm: sha1WithRSAEncryption
        Issuer: C=AU, ST=Some-State, O=Internet Widgits Pty Ltd, CN=CA Owner/emailAddress=ca.owner@example.com
        Validity
            Not Before: Feb  8 16:30:08 2010 GMT
            Not After : Feb  8 16:30:08 2011 GMT
        Subject: C=AU, ST=Some-State, O=Internet Widgits Pty Ltd, CN=Enoch Root/emailAddress=root@example.com
        Subject Public Key Info:
            Public Key Algorithm: rsaEncryption
            RSA Public Key: (512 bit)
                Modulus (512 bit):
                    00:b2:77:b9:bc:09:7d:14:8e:6b:6f:7e:33:a9:95:
                    21:5d:f3:3c:91:61:f1:bc:5c:1d:7e:e7:54:25:e8:
                    cb:5f:b7:18:0e:23:26:00:42:09:bd:89:da:5c:06:
                    cb:52:08:43:f6:4e:fe:dd:f8:0a:8a:95:35:8f:4a:
                    25:16:da:e6:bf
                Exponent: 65537 (0x10001)
        X509v3 extensions:
            X509v3 Basic Constraints: 
                CA:FALSE
            Netscape Comment: 
                OpenSSL Generated Certificate
            X509v3 Subject Key Identifier: 
                97:D7:80:52:CA:BB:E1:02:60:93:53:42:A2:14:12:E8:ED:1F:C0:7A
            X509v3 Authority Key Identifier: 
                keyid:8D:1B:2D:BD:BD:24:E8:19:62:AE:4C:C9:2A:58:90:08:1C:D1:05:2B

    Signature Algorithm: sha1WithRSAEncryption
        95:5d:21:4f:cc:62:44:49:ad:f7:7f:75:ee:b0:e8:ec:0c:25:
        39:72:4d:9d:98:86:99:81:81:02:a0:d1:2b:3e:2b:5c:01:14:
        77:81:aa:be:a7:ff:9a:db:b4:b6:9c:b2:2e:d7:eb:4e:32:b8:
        69:dd:7a:3f:3c:38:50:22:46:e5:21:1c:fc:d0:bf:04:79:5a:
        5b:ac:53:77:33:be:27:63:6e:d7:47:e7:2f:75:15:84:db:9a:
        08:c0:0a:b5:00:77:51:fe:64:df:97:95:ee:7f:2a:f8:83:72:
        67:4a:c9:75:7e:a6:dd:e5:d6:83:c5:a6:b9:0d:0e:24:39:ca:
        06:d7
-----BEGIN CERTIFICATE-----
MIICrTCCAhagAwIBAgIJAIpqzVG+lKAWMA0GCSqGSIb3DQEBBQUAMH0xCzAJBgNV
BAYTAkFVMRMwEQYDVQQIEwpTb21lLVN0YXRlMSEwHwYDVQQKExhJbnRlcm5ldCBX
aWRnaXRzIFB0eSBMdGQxETAPBgNVBAMTCENBIE93bmVyMSMwIQYJKoZIhvcNAQkB
FhRjYS5vd25lckBleGFtcGxlLmNvbTAeFw0xMDAyMDgxNjMwMDhaFw0xMTAyMDgx
NjMwMDhaMHsxCzAJBgNVBAYTAkFVMRMwEQYDVQQIEwpTb21lLVN0YXRlMSEwHwYD
VQQKExhJbnRlcm5ldCBXaWRnaXRzIFB0eSBMdGQxEzARBgNVBAMTCkVub2NoIFJv
b3QxHzAdBgkqhkiG9w0BCQEWEHJvb3RAZXhhbXBsZS5jb20wXDANBgkqhkiG9w0B
AQEFAANLADBIAkEAsne5vAl9FI5rb34zqZUhXfM8kWHxvFwdfudUJejLX7cYDiMm
AEIJvYnaXAbLUghD9k7+3fgKipU1j0olFtrmvwIDAQABo3sweTAJBgNVHRMEAjAA
MCwGCWCGSAGG+EIBDQQfFh1PcGVuU1NMIEdlbmVyYXRlZCBDZXJ0aWZpY2F0ZTAd
BgNVHQ4EFgQUl9eAUsq74QJgk1NCohQS6O0fwHowHwYDVR0jBBgwFoAUjRstvb0k
6BlirkzJKliQCBzRBSswDQYJKoZIhvcNAQEFBQADgYEAlV0hT8xiREmt93917rDo
7AwlOXJNnZiGmYGBAqDRKz4rXAEUd4Gqvqf/mtu0tpyyLtfrTjK4ad16Pzw4UCJG
5SEc/NC/BHlaW6xTdzO+J2Nu10fnL3UVhNuaCMAKtQB3Uf5k35eV7n8q+INyZ0rJ
dX6m3eXWg8WmuQ0OJDnKBtc=
-----END CERTIFICATE-----
-----BEGIN RSA PRIVATE KEY-----
Proc-Type: 4,ENCRYPTED
DEK-Info: DES-EDE3-CBC,6356CE6012402B9B

Lco5rf3/rHlShktH/o6NHF1mVH00k+pZ3bWodejMaHW1ofZXe9/yjzPM2jqqi+Dj
xmzZ9R/MijO07vpxWHqdvhXeFf0TW67gW413M/bwiRd/rV0mUFz81nowFe9e15tm
Itku1sePFvvL/UUxBGeYhplHAP6e76JqQcJTkBaG04KitH9GHtj1HFQR8P9/8h6d
f0ZtU8wqnhkZvtzb72ZLwsw0YZ7R9YLIqCmOn1twW0CC77deACy+deJOC0N4CxW6
+jEGbJKMN5rOPsFiieDzZXAaTlGd6qXVWaxUPYH89yWedYoAZgbi6zxGGwNGbc/Q
2Y7g+qHi3L30uJvgJEGihIM+9iAKUJSazyGYl9Xl2FwTpNFOMJAYFyNKNv5FHwdm
deoslrbEXVtqurOQYr955cyqs2NN+JYLsz5nNnfBpGo=
-----END RSA PRIVATE KEY-----
