Certificate:
    Data:
        Version: 1 (0x0)
        Serial Number:
            8a:6a:cd:51:be:94:a0:16
        Signature Algorithm: sha256WithRSAEncryption
        Issuer: C = AU, ST = Some-State, O = Internet Widgits Pty Ltd, CN = CA Owner, emailAddress = ca.owner@example.com
        Validity
            Not Before: Aug 29 10:49:26 2023 GMT
            Not After : Aug 29 10:49:26 2123 GMT
        Subject: C = AU, ST = Some-State, O = Internet Widgits Pty Ltd, CN = Enoch Root, emailAddress = root@example.com
        Subject Public Key Info:
            Public Key Algorithm: rsaEncryption
                Public-Key: (4096 bit)
                Modulus:
                    00:d7:38:31:b4:41:16:d8:bb:6f:cf:f8:ba:90:ed:
                    88:d3:aa:51:5d:05:19:19:4b:69:95:95:f5:40:0e:
                    fc:20:49:32:fb:59:9d:5b:54:bd:cd:a6:4c:cf:07:
                    13:51:0a:2b:80:01:bf:49:da:fe:f4:a8:9b:ec:9e:
                    c5:ad:4e:1a:72:02:87:cd:57:c1:a9:82:a3:36:3d:
                    96:62:81:e1:9d:a6:92:88:d0:fc:70:be:11:c0:3a:
                    d2:8b:e3:c7:51:f2:b0:13:c8:65:c7:f9:f0:13:d8:
                    33:c1:46:53:48:67:89:6a:0a:25:75:86:89:b6:cf:
                    3e:f0:c9:94:97:4d:c5:f5:9a:5e:2e:7d:af:55:78:
                    b3:65:95:4c:a7:e8:4a:f3:10:e9:29:20:10:00:65:
                    bf:97:fd:68:e3:ed:2d:68:07:5d:6b:ea:78:1d:01:
                    73:56:24:26:eb:7b:26:78:97:9a:41:bf:1a:cb:18:
                    6c:67:31:19:47:79:55:b9:4f:00:9a:d9:65:bd:0f:
                    74:b9:08:39:39:0c:4e:bb:a8:78:21:ba:4b:52:07:
                    72:7b:50:37:ee:2e:ab:f0:2d:79:0f:53:58:b7:a5:
                    a0:c2:bb:9f:86:7c:a6:a4:7a:68:c1:d3:d4:66:25:
                    e8:7d:f7:41:0a:96:25:bc:c6:87:b6:ed:34:71:17:
                    55:e1:95:4a:c2:e2:5b:7a:6a:5f:67:5e:cd:0f:d8:
                    43:f4:4d:13:d8:00:bf:4b:e2:d9:df:1a:6e:14:13:
                    e3:30:6e:05:ad:35:1d:5c:c9:be:59:cb:9f:9f:f8:
                    9d:e6:0f:de:06:db:4c:15:9e:a6:8f:84:b5:37:2c:
                    72:bc:45:9b:61:72:d0:0e:23:fb:d4:a2:cb:bd:77:
                    c3:70:69:4c:bc:6b:09:1c:00:26:0b:90:5b:c9:d8:
                    10:f4:18:04:6e:9b:1a:f2:7b:da:60:30:df:78:04:
                    de:39:bb:c7:a3:36:30:41:38:5e:7f:7a:3e:6f:40:
                    1d:c2:58:05:bf:a3:16:1e:ba:77:bd:30:1d:3f:0b:
                    16:98:a4:67:98:2a:ae:b2:42:2d:30:72:9c:bb:1d:
                    8d:0a:25:85:2d:7b:42:4d:8b:87:4b:7a:15:ae:af:
                    2a:3e:78:a7:a6:a7:50:cc:ad:6e:dd:75:d1:f7:d6:
                    07:2a:44:92:4a:88:3b:30:e9:72:84:54:e4:68:4e:
                    db:da:42:7e:d2:88:28:79:bb:0b:0d:d0:22:7f:b7:
                    75:f7:57:8b:45:25:0b:b6:02:6f:8d:56:27:1e:14:
                    5a:6e:c5:84:ff:f5:d5:79:54:c5:24:e4:b2:fa:ab:
                    55:95:1d:d2:56:d8:46:c9:1c:77:bd:64:57:cf:88:
                    e9:04:cf
                Exponent: 65537 (0x10001)
    Signature Algorithm: sha256WithRSAEncryption
    Signature Value:
        0c:76:a3:14:d4:b5:2d:0c:9c:6b:e8:54:89:87:00:78:3c:12:
        50:7f:a7:f1:7b:3f:81:a7:0f:d6:ef:a2:28:24:16:61:32:69:
        57:43:27:2a:be:1d:50:76:23:cf:44:90:20:7c:89:5b:de:3a:
        b2:eb:b5:37:a2:84:7a:10:e6:7a:d3:8c:13:b1:fd:9b:89:24:
        ec:ff:8b:9c:e7:6e:c3:b5:17:cb:5f:76:61:5c:10:a3:5e:49:
        e4:f8:ad:0c:fe:f6:b8:33:6b:85:a7:f1:6f:43:d1:97:de:c8:
        83:d7:56:e9:34:77:c0:77:2a:a6:64:0c:7b:6f:ab:fb:34:d6:
        64:51
-----BEGIN CERTIFICATE-----
MIID9TCCA14CCQCKas1RvpSgFjANBgkqhkiG9w0BAQsFADB9MQswCQYDVQQGEwJB
VTETMBEGA1UECAwKU29tZS1TdGF0ZTEhMB8GA1UECgwYSW50ZXJuZXQgV2lkZ2l0
cyBQdHkgTHRkMREwDwYDVQQDDAhDQSBPd25lcjEjMCEGCSqGSIb3DQEJARYUY2Eu
b3duZXJAZXhhbXBsZS5jb20wIBcNMjMwODI5MTA0OTI2WhgPMjEyMzA4MjkxMDQ5
MjZaMHsxCzAJBgNVBAYTAkFVMRMwEQYDVQQIDApTb21lLVN0YXRlMSEwHwYDVQQK
DBhJbnRlcm5ldCBXaWRnaXRzIFB0eSBMdGQxEzARBgNVBAMMCkVub2NoIFJvb3Qx
HzAdBgkqhkiG9w0BCQEWEHJvb3RAZXhhbXBsZS5jb20wggIiMA0GCSqGSIb3DQEB
AQUAA4ICDwAwggIKAoICAQDXODG0QRbYu2/P+LqQ7YjTqlFdBRkZS2mVlfVADvwg
STL7WZ1bVL3NpkzPBxNRCiuAAb9J2v70qJvsnsWtThpyAofNV8GpgqM2PZZigeGd
ppKI0PxwvhHAOtKL48dR8rATyGXH+fAT2DPBRlNIZ4lqCiV1hom2zz7wyZSXTcX1
ml4ufa9VeLNllUyn6ErzEOkpIBAAZb+X/Wjj7S1oB11r6ngdAXNWJCbreyZ4l5pB
vxrLGGxnMRlHeVW5TwCa2WW9D3S5CDk5DE67qHghuktSB3J7UDfuLqvwLXkPU1i3
paDCu5+GfKakemjB09RmJeh990EKliW8xoe27TRxF1XhlUrC4lt6al9nXs0P2EP0
TRPYAL9L4tnfGm4UE+MwbgWtNR1cyb5Zy5+f+J3mD94G20wVnqaPhLU3LHK8RZth
ctAOI/vUosu9d8NwaUy8awkcACYLkFvJ2BD0GARumxrye9pgMN94BN45u8ejNjBB
OF5/ej5vQB3CWAW/oxYeune9MB0/CxaYpGeYKq6yQi0wcpy7HY0KJYUte0JNi4dL
ehWuryo+eKemp1DMrW7dddH31gcqRJJKiDsw6XKEVORoTtvaQn7SiCh5uwsN0CJ/
t3X3V4tFJQu2Am+NViceFFpuxYT/9dV5VMUk5LL6q1WVHdJW2EbJHHe9ZFfPiOkE
zwIDAQABMA0GCSqGSIb3DQEBCwUAA4GBAAx2oxTUtS0MnGvoVImHAHg8ElB/p/F7
P4GnD9bvoigkFmEyaVdDJyq+HVB2I89EkCB8iVveOrLrtTeihHoQ5nrTjBOx/ZuJ
JOz/i5znbsO1F8tfdmFcEKNeSeT4rQz+9rgza4Wn8W9D0ZfeyIPXVuk0d8B3KqZk
DHtvq/s01mRR
-----END CERTIFICATE-----
