Certificate:
    Data:
        Version: 3 (0x2)
        Serial Number:
            8a:6a:cd:51:be:94:a0:16
        Signature Algorithm: sha1WithRSAEncryption
        Issuer: C=AU, ST=Some-State, O=Internet Widgits Pty Ltd, CN=CA Owner/emailAddress=ca.owner@example.com
        Validity
            Not Before: Dec 28 21:46:42 2011 GMT
            Not After : Aug 18 21:46:42 2036 GMT
        Subject: C=AU, ST=Some-State, O=Internet Widgits Pty Ltd, CN=Enoch Root/emailAddress=root@example.com
        Subject Public Key Info:
            Public Key Algorithm: rsaEncryption
                Public-Key: (512 bit)
                Modulus:
                    00:b2:77:b9:bc:09:7d:14:8e:6b:6f:7e:33:a9:95:
                    21:5d:f3:3c:91:61:f1:bc:5c:1d:7e:e7:54:25:e8:
                    cb:5f:b7:18:0e:23:26:00:42:09:bd:89:da:5c:06:
                    cb:52:08:43:f6:4e:fe:dd:f8:0a:8a:95:35:8f:4a:
                    25:16:da:e6:bf
                Exponent: 65537 (0x10001)
        X509v3 extensions:
            X509v3 Basic Constraints: 
                CA:FALSE
            Netscape Comment: 
                OpenSSL Generated Certificate
            X509v3 Subject Key Identifier: 
                97:D7:80:52:CA:BB:E1:02:60:93:53:42:A2:14:12:E8:ED:1F:C0:7A
            X509v3 Authority Key Identifier: 
                keyid:8D:1B:2D:BD:BD:24:E8:19:62:AE:4C:C9:2A:58:90:08:1C:D1:05:2B

    Signature Algorithm: sha1WithRSAEncryption
        95:58:dc:1e:2b:c2:92:18:af:ce:a5:24:19:5e:04:c9:a6:ca:
        01:26:d0:65:6a:89:78:fa:a1:e3:94:fc:f3:b9:32:20:dc:9d:
        91:aa:9f:44:8b:ef:86:5c:82:dc:99:ef:4a:c9:34:6f:f0:2e:
        77:55:a4:ed:1f:b5:06:be:e2:7e:1c:22:76:08:cb:68:e0:e0:
        4d:6c:86:8f:37:90:6d:1d:9c:0c:c7:6a:67:3f:3c:47:68:f4:
        4e:22:78:80:11:7e:0a:08:8c:fe:df:32:db:a7:d3:6f:35:cb:
        5a:ba:00:0f:a3:6b:1b:4f:05:1e:97:e2:c8:e0:7f:3f:7f:51:
        c7:66
-----BEGIN CERTIFICATE-----
MIICrTCCAhagAwIBAgIJAIpqzVG+lKAWMA0GCSqGSIb3DQEBBQUAMH0xCzAJBgNV
BAYTAkFVMRMwEQYDVQQIEwpTb21lLVN0YXRlMSEwHwYDVQQKExhJbnRlcm5ldCBX
aWRnaXRzIFB0eSBMdGQxETAPBgNVBAMTCENBIE93bmVyMSMwIQYJKoZIhvcNAQkB
FhRjYS5vd25lckBleGFtcGxlLmNvbTAeFw0xMTEyMjgyMTQ2NDJaFw0zNjA4MTgy
MTQ2NDJaMHsxCzAJBgNVBAYTAkFVMRMwEQYDVQQIEwpTb21lLVN0YXRlMSEwHwYD
VQQKExhJbnRlcm5ldCBXaWRnaXRzIFB0eSBMdGQxEzARBgNVBAMTCkVub2NoIFJv
b3QxHzAdBgkqhkiG9w0BCQEWEHJvb3RAZXhhbXBsZS5jb20wXDANBgkqhkiG9w0B
AQEFAANLADBIAkEAsne5vAl9FI5rb34zqZUhXfM8kWHxvFwdfudUJejLX7cYDiMm
AEIJvYnaXAbLUghD9k7+3fgKipU1j0olFtrmvwIDAQABo3sweTAJBgNVHRMEAjAA
MCwGCWCGSAGG+EIBDQQfFh1PcGVuU1NMIEdlbmVyYXRlZCBDZXJ0aWZpY2F0ZTAd
BgNVHQ4EFgQUl9eAUsq74QJgk1NCohQS6O0fwHowHwYDVR0jBBgwFoAUjRstvb0k
6BlirkzJKliQCBzRBSswDQYJKoZIhvcNAQEFBQADgYEAlVjcHivCkhivzqUkGV4E
yabKASbQZWqJePqh45T887kyINydkaqfRIvvhlyC3JnvSsk0b/Aud1Wk7R+1Br7i
fhwidgjLaODgTWyGjzeQbR2cDMdqZz88R2j0TiJ4gBF+CgiM/t8y26fTbzXLWroA
D6NrG08FHpfiyOB/P39Rx2Y=
-----END CERTIFICATE-----
-----BEGIN RSA PRIVATE KEY-----
Proc-Type: 4,ENCRYPTED
DEK-Info: DES-EDE3-CBC,6356CE6012402B9B

Lco5rf3/rHlShktH/o6NHF1mVH00k+pZ3bWodejMaHW1ofZXe9/yjzPM2jqqi+Dj
xmzZ9R/MijO07vpxWHqdvhXeFf0TW67gW413M/bwiRd/rV0mUFz81nowFe9e15tm
Itku1sePFvvL/UUxBGeYhplHAP6e76JqQcJTkBaG04KitH9GHtj1HFQR8P9/8h6d
f0ZtU8wqnhkZvtzb72ZLwsw0YZ7R9YLIqCmOn1twW0CC77deACy+deJOC0N4CxW6
+jEGbJKMN5rOPsFiieDzZXAaTlGd6qXVWaxUPYH89yWedYoAZgbi6zxGGwNGbc/Q
2Y7g+qHi3L30uJvgJEGihIM+9iAKUJSazyGYl9Xl2FwTpNFOMJAYFyNKNv5FHwdm
deoslrbEXVtqurOQYr955cyqs2NN+JYLsz5nNnfBpGo=
-----END RSA PRIVATE KEY-----
