Certificate:
    Data:
        Version: 1 (0x0)
        Serial Number:
            8a:6a:cd:51:be:94:a0:15
        Signature Algorithm: sha256WithRSAEncryption
        Issuer: C = AU, ST = Some-State, O = Internet Widgits Pty Ltd, CN = CA Owner, emailAddress = ca.owner@example.com
        Validity
            Not Before: Aug 29 10:49:06 2023 GMT
            Not After : Aug 29 10:49:06 2123 GMT
        Subject: C = AU, ST = Some-State, O = Internet Widgits Pty Ltd, CN = sender, emailAddress = sender@example.com
        Subject Public Key Info:
            Public Key Algorithm: rsaEncryption
                Public-Key: (4096 bit)
                Modulus:
                    00:8f:5d:6c:de:e9:ca:79:e5:01:9e:b6:cf:60:e3:
                    6a:b0:fb:c7:f4:1a:9a:5d:60:f6:74:f7:a7:86:84:
                    cf:8b:e3:92:7f:f2:23:e9:6a:d3:37:7c:db:e6:fe:
                    30:6a:2b:ed:41:27:47:b7:11:fe:12:2f:b6:88:cb:
                    01:11:3d:44:7b:d7:73:23:65:4d:72:10:62:99:de:
                    76:9b:11:9e:3c:ea:1a:89:1a:62:73:ba:8f:ae:c2:
                    2a:de:40:78:dc:dc:19:99:f3:c6:9b:32:fc:bc:c6:
                    0e:57:f5:7a:48:cc:39:ea:08:bf:5d:2c:9d:31:ac:
                    a4:68:7c:69:9f:5c:a1:77:ab:f5:53:b2:d8:d1:10:
                    17:3d:fe:6d:92:9f:39:bc:b2:8d:0e:2e:58:27:53:
                    dd:eb:ca:1e:10:3a:b2:74:ff:30:db:78:cb:27:bf:
                    8f:41:57:d0:ba:f9:a3:cd:a7:88:67:46:67:cf:d6:
                    65:ef:c1:52:fd:22:8c:f0:73:fb:7d:ca:1f:d8:59:
                    f2:4f:01:b3:92:ac:30:00:02:fd:13:30:e2:54:54:
                    5b:43:5d:31:44:b9:e4:dd:14:a0:36:24:48:6a:ba:
                    eb:1d:53:8c:84:f9:68:a3:d8:d4:0f:10:9e:00:b9:
                    c7:a2:ab:f6:51:87:04:d4:6f:0d:65:f0:47:d3:c4:
                    88:7a:62:45:a1:f2:49:79:98:6e:40:f0:50:91:44:
                    37:0f:86:99:37:16:ff:16:ea:4b:38:2b:2d:41:fb:
                    5a:e1:e6:7c:6d:ac:c4:31:6f:4f:a8:7f:bb:ce:84:
                    b5:4c:9a:ab:9a:d4:ea:56:e1:d5:50:f3:b3:66:ae:
                    a5:fe:81:14:21:13:e1:f8:9d:75:4e:f3:29:e3:cc:
                    06:b8:34:f0:8c:2d:e0:e4:d7:58:21:16:0e:97:8d:
                    b6:b0:74:e8:61:d2:57:3f:fc:15:5b:1b:a9:11:86:
                    73:d0:18:b9:a5:a3:45:b8:ae:a3:3c:9f:06:6c:3a:
                    c4:a5:19:cb:65:3d:2a:86:8c:d5:5b:75:15:00:7d:
                    98:4a:ba:f1:07:e1:de:36:2f:c1:d3:c9:e3:49:bf:
                    80:4a:96:3c:33:59:4d:57:bf:31:28:bb:c3:c3:f0:
                    0f:36:b4:a8:e3:33:aa:5a:e4:4a:5f:b7:b5:25:1e:
                    8e:57:21:3a:1b:ea:38:ca:63:74:ac:81:56:a0:3a:
                    65:b8:68:39:22:02:df:e0:0d:75:07:5e:31:b0:da:
                    57:87:4e:5f:23:3a:55:da:29:8a:5e:87:d9:60:7d:
                    6e:95:6d:d6:50:10:28:5d:ea:b0:38:13:d4:03:8b:
                    0b:85:0b:b4:16:83:4b:42:7e:12:04:28:7f:e8:f9:
                    bf:57:8b
                Exponent: 65537 (0x10001)
    Signature Algorithm: sha256WithRSAEncryption
    Signature Value:
        b9:6b:c9:58:6a:34:f3:8d:53:b3:2e:c8:34:87:2a:0e:06:6e:
        bc:9e:40:eb:12:ca:03:41:c2:ef:03:e4:8d:1f:d2:78:0d:fd:
        a2:f8:7d:39:bc:5f:06:6e:95:d3:6c:46:3e:42:9b:2e:a2:da:
        82:f0:5d:bd:5a:f3:1c:a8:ca:e1:9b:d9:59:0f:dc:be:e5:51:
        b1:8b:b4:9f:23:e1:19:6a:56:de:ab:61:93:70:25:9a:09:22:
        60:c8:9c:50:89:43:c4:f9:35:99:f6:48:eb:23:62:c8:83:b6:
        70:36:ba:10:54:aa:3f:1a:cd:2b:eb:38:0b:19:ba:29:ae:de:
        aa:9b
-----BEGIN CERTIFICATE-----
MIID8zCCA1wCCQCKas1RvpSgFTANBgkqhkiG9w0BAQsFADB9MQswCQYDVQQGEwJB
VTETMBEGA1UECAwKU29tZS1TdGF0ZTEhMB8GA1UECgwYSW50ZXJuZXQgV2lkZ2l0
cyBQdHkgTHRkMREwDwYDVQQDDAhDQSBPd25lcjEjMCEGCSqGSIb3DQEJARYUY2Eu
b3duZXJAZXhhbXBsZS5jb20wIBcNMjMwODI5MTA0OTA2WhgPMjEyMzA4MjkxMDQ5
MDZaMHkxCzAJBgNVBAYTAkFVMRMwEQYDVQQIDApTb21lLVN0YXRlMSEwHwYDVQQK
DBhJbnRlcm5ldCBXaWRnaXRzIFB0eSBMdGQxDzANBgNVBAMMBnNlbmRlcjEhMB8G
CSqGSIb3DQEJARYSc2VuZGVyQGV4YW1wbGUuY29tMIICIjANBgkqhkiG9w0BAQEF
AAOCAg8AMIICCgKCAgEAj11s3unKeeUBnrbPYONqsPvH9BqaXWD2dPenhoTPi+OS
f/Ij6WrTN3zb5v4waivtQSdHtxH+Ei+2iMsBET1Ee9dzI2VNchBimd52mxGePOoa
iRpic7qPrsIq3kB43NwZmfPGmzL8vMYOV/V6SMw56gi/XSydMaykaHxpn1yhd6v1
U7LY0RAXPf5tkp85vLKNDi5YJ1Pd68oeEDqydP8w23jLJ7+PQVfQuvmjzaeIZ0Zn
z9Zl78FS/SKM8HP7fcof2FnyTwGzkqwwAAL9EzDiVFRbQ10xRLnk3RSgNiRIarrr
HVOMhPloo9jUDxCeALnHoqv2UYcE1G8NZfBH08SIemJFofJJeZhuQPBQkUQ3D4aZ
Nxb/FupLOCstQfta4eZ8bazEMW9PqH+7zoS1TJqrmtTqVuHVUPOzZq6l/oEUIRPh
+J11TvMp48wGuDTwjC3g5NdYIRYOl422sHToYdJXP/wVWxupEYZz0Bi5paNFuK6j
PJ8GbDrEpRnLZT0qhozVW3UVAH2YSrrxB+HeNi/B08njSb+ASpY8M1lNV78xKLvD
w/APNrSo4zOqWuRKX7e1JR6OVyE6G+o4ymN0rIFWoDpluGg5IgLf4A11B14xsNpX
h05fIzpV2imKXofZYH1ulW3WUBAoXeqwOBPUA4sLhQu0FoNLQn4SBCh/6Pm/V4sC
AwEAATANBgkqhkiG9w0BAQsFAAOBgQC5a8lYajTzjVOzLsg0hyoOBm68nkDrEsoD
QcLvA+SNH9J4Df2i+H05vF8GbpXTbEY+QpsuotqC8F29WvMcqMrhm9lZD9y+5VGx
i7SfI+EZalbeq2GTcCWaCSJgyJxQiUPE+TWZ9kjrI2LIg7ZwNroQVKo/Gs0r6zgL
Gboprt6qmw==
-----END CERTIFICATE-----
