Certificate:
    Data:
        Version: 3 (0x2)
        Serial Number:
            8a:6a:cd:51:be:94:a0:15
        Signature Algorithm: sha1WithRSAEncryption
        Issuer: C=AU, ST=Some-State, O=Internet Widgits Pty Ltd, CN=CA Owner/emailAddress=ca.owner@example.com
        Validity
            Not Before: Feb  8 16:25:42 2010 GMT
            Not After : Feb  8 16:25:42 2011 GMT
        Subject: C=AU, ST=Some-State, O=Internet Widgits Pty Ltd, CN=sender/emailAddress=sender@example.com
        Subject Public Key Info:
            Public Key Algorithm: rsaEncryption
            RSA Public Key: (512 bit)
                Modulus (512 bit):
                    00:a8:38:41:90:1d:e7:cd:2b:cb:62:cf:ad:ff:70:
                    f6:44:5d:f3:4b:7e:21:75:b6:5c:e1:7e:c2:27:3b:
                    85:eb:72:9b:5a:94:0a:69:1d:83:ca:c5:91:b2:3f:
                    04:72:61:e4:b8:eb:5b:ce:b5:10:77:d8:a7:df:8b:
                    c9:5a:14:15:61
                Exponent: 65537 (0x10001)
        X509v3 extensions:
            X509v3 Basic Constraints: 
                CA:FALSE
            Netscape Comment: 
                OpenSSL Generated Certificate
            X509v3 Subject Key Identifier: 
                F3:34:E6:C3:51:78:92:9B:93:49:8E:4E:30:BC:18:88:24:69:34:09
            X509v3 Authority Key Identifier: 
                keyid:8D:1B:2D:BD:BD:24:E8:19:62:AE:4C:C9:2A:58:90:08:1C:D1:05:2B

    Signature Algorithm: sha1WithRSAEncryption
        53:90:db:6d:d0:aa:0f:cb:32:94:2e:a5:bc:d1:0d:27:7c:85:
        d8:08:6c:52:fe:b1:4d:18:94:c2:10:ff:4f:8f:71:2b:81:bf:
        a3:aa:11:3e:6e:72:5f:4a:1a:38:a0:3f:5f:2c:89:d6:af:c5:
        6c:ff:59:63:13:2d:fb:5a:2f:58:b2:77:3e:52:83:07:01:c6:
        4e:cf:19:9c:9a:f3:17:ac:63:c2:00:f3:18:b9:27:a6:d5:1a:
        14:11:d6:f0:db:9b:de:e4:ad:cd:29:01:fd:38:c1:21:9c:fa:
        a2:0b:5e:6d:5d:14:54:ce:0a:3c:f7:af:0f:e6:7f:c7:39:00:
        b3:33
-----BEGIN CERTIFICATE-----
MIICqzCCAhSgAwIBAgIJAIpqzVG+lKAVMA0GCSqGSIb3DQEBBQUAMH0xCzAJBgNV
BAYTAkFVMRMwEQYDVQQIEwpTb21lLVN0YXRlMSEwHwYDVQQKExhJbnRlcm5ldCBX
aWRnaXRzIFB0eSBMdGQxETAPBgNVBAMTCENBIE93bmVyMSMwIQYJKoZIhvcNAQkB
FhRjYS5vd25lckBleGFtcGxlLmNvbTAeFw0xMDAyMDgxNjI1NDJaFw0xMTAyMDgx
NjI1NDJaMHkxCzAJBgNVBAYTAkFVMRMwEQYDVQQIEwpTb21lLVN0YXRlMSEwHwYD
VQQKExhJbnRlcm5ldCBXaWRnaXRzIFB0eSBMdGQxDzANBgNVBAMTBnNlbmRlcjEh
MB8GCSqGSIb3DQEJARYSc2VuZGVyQGV4YW1wbGUuY29tMFwwDQYJKoZIhvcNAQEB
BQADSwAwSAJBAKg4QZAd580ry2LPrf9w9kRd80t+IXW2XOF+wic7hetym1qUCmkd
g8rFkbI/BHJh5LjrW861EHfYp9+LyVoUFWECAwEAAaN7MHkwCQYDVR0TBAIwADAs
BglghkgBhvhCAQ0EHxYdT3BlblNTTCBHZW5lcmF0ZWQgQ2VydGlmaWNhdGUwHQYD
VR0OBBYEFPM05sNReJKbk0mOTjC8GIgkaTQJMB8GA1UdIwQYMBaAFI0bLb29JOgZ
Yq5MySpYkAgc0QUrMA0GCSqGSIb3DQEBBQUAA4GBAFOQ223Qqg/LMpQupbzRDSd8
hdgIbFL+sU0YlMIQ/0+PcSuBv6OqET5ucl9KGjigP18sidavxWz/WWMTLftaL1iy
dz5SgwcBxk7PGZya8xesY8IA8xi5J6bVGhQR1vDbm97krc0pAf04wSGc+qILXm1d
FFTOCjz3rw/mf8c5ALMz
-----END CERTIFICATE-----
-----BEGIN RSA PRIVATE KEY-----
Proc-Type: 4,ENCRYPTED
DEK-Info: DES-EDE3-CBC,605762440BC8261C

MpUs66ILz2ePX4NKQ408LOAwvmpLLLnSwDX/Zmr/LG4SyZ7AnY6dY06XB6suev3m
AS+xm/LM44lvUaDvPnl4gO8jnCw3D1yktcfeHc6XqcFx2U9AiUTawmoSTKwrT4P+
tnpSrrBJY3WghElbckK3vbZboX9Eld+dJjGPf9YqMrkixObp0ul1zW7Wt+aSEV5B
ngP3VmQinB1EjSUhGF/gsFzhJsutsX4Z1SE/U4K1A1OPl3Oz4e+9VLGgUN4ao84y
pcNYdXO/BCax4Uk8l0r0DcMd73P9WZs9+bcSgmkqduWCXkNXDbfi4RTOEn19Ehpu
MyKc3JrskRhNRN1vfMSRFUsrmppxBdPfkrGrTCJNBuL7zdbQh9k9XMaNzfw5Tt2R
oCWay5shBGEEKXRLIEqzO+Jx1BWVlWwxUwDLr73ItHA=
-----END RSA PRIVATE KEY-----
