Certificate:
    Data:
        Version: 1 (0x0)
        Serial Number: 9974010075738841109 (0x8a6acd51be94a015)
    Signature Algorithm: sha1WithRSAEncryption
        Issuer: C=AU, ST=Some-State, O=Internet Widgits Pty Ltd, CN=CA Owner/emailAddress=ca.owner@example.com
        Validity
            Not Before: Aug 28 21:41:45 2013 GMT
            Not After : Aug 28 21:41:45 2023 GMT
        Subject: C=AU, ST=Some-State, O=Internet Widgits Pty Ltd, CN=sender/emailAddress=sender@example.com
        Subject Public Key Info:
            Public Key Algorithm: rsaEncryption
                Public-Key: (512 bit)
                Modulus:
                    00:a8:38:41:90:1d:e7:cd:2b:cb:62:cf:ad:ff:70:
                    f6:44:5d:f3:4b:7e:21:75:b6:5c:e1:7e:c2:27:3b:
                    85:eb:72:9b:5a:94:0a:69:1d:83:ca:c5:91:b2:3f:
                    04:72:61:e4:b8:eb:5b:ce:b5:10:77:d8:a7:df:8b:
                    c9:5a:14:15:61
                Exponent: 65537 (0x10001)
    Signature Algorithm: sha1WithRSAEncryption
         91:74:84:00:98:40:30:6b:a6:61:6b:7b:d7:c9:9d:6e:ef:bb:
         c8:ba:8b:83:15:62:3e:d1:c2:9d:1c:4e:ce:09:ce:d8:4f:4a:
         49:a8:97:e8:3b:ed:82:2c:a3:20:45:72:f3:d9:23:66:93:d5:
         54:14:ce:ce:cf:27:04:52:43:b4:a7:0b:ac:b8:45:a3:96:bf:
         2f:43:59:61:02:7a:36:39:9c:01:ad:b7:63:6e:b5:b6:29:cb:
         79:78:93:95:25:24:4a:83:bd:1d:d6:07:86:06:6a:fa:04:60:
         6e:ba:41:11:0a:cb:b2:84:03:ac:30:55:94:ed:b2:2d:3c:c5:
         99:6f
-----BEGIN CERTIFICATE-----
MIICKTCCAZICCQCKas1RvpSgFTANBgkqhkiG9w0BAQUFADB9MQswCQYDVQQGEwJB
VTETMBEGA1UECAwKU29tZS1TdGF0ZTEhMB8GA1UECgwYSW50ZXJuZXQgV2lkZ2l0
cyBQdHkgTHRkMREwDwYDVQQDDAhDQSBPd25lcjEjMCEGCSqGSIb3DQEJARYUY2Eu
b3duZXJAZXhhbXBsZS5jb20wHhcNMTMwODI4MjE0MTQ1WhcNMjMwODI4MjE0MTQ1
WjB5MQswCQYDVQQGEwJBVTETMBEGA1UECBMKU29tZS1TdGF0ZTEhMB8GA1UEChMY
SW50ZXJuZXQgV2lkZ2l0cyBQdHkgTHRkMQ8wDQYDVQQDEwZzZW5kZXIxITAfBgkq
hkiG9w0BCQEWEnNlbmRlckBleGFtcGxlLmNvbTBcMA0GCSqGSIb3DQEBAQUAA0sA
MEgCQQCoOEGQHefNK8tiz63/cPZEXfNLfiF1tlzhfsInO4XrcptalAppHYPKxZGy
PwRyYeS461vOtRB32Kffi8laFBVhAgMBAAEwDQYJKoZIhvcNAQEFBQADgYEAkXSE
AJhAMGumYWt718mdbu+7yLqLgxViPtHCnRxOzgnO2E9KSaiX6DvtgiyjIEVy89kj
ZpPVVBTOzs8nBFJDtKcLrLhFo5a/L0NZYQJ6NjmcAa23Y261tinLeXiTlSUkSoO9
HdYHhgZq+gRgbrpBEQrLsoQDrDBVlO2yLTzFmW8=
-----END CERTIFICATE-----
