Certificate:
    Data:
        Version: 3 (0x2)
        Serial Number:
            6b:df:42:4b:c4:f9:01:08:67:f2:ba:27:a1:21:05:8e:91:65:44:27
        Signature Algorithm: sha256WithRSAEncryption
        Issuer: C = AU, ST = Some-State, O = "Other Widgits, LLC", CN = CA Owner, emailAddress = ca.owner@example.net
        Validity
            Not Before: Aug 29 10:49:43 2023 GMT
            Not After : Aug 29 10:49:43 2123 GMT
        Subject: C = AU, ST = Some-State, O = "Other Widgits, LLC", CN = CA Owner, emailAddress = ca.owner@example.net
        Subject Public Key Info:
            Public Key Algorithm: rsaEncryption
                Public-Key: (2048 bit)
                Modulus:
                    00:d6:b6:53:04:53:e8:98:91:c6:6a:ab:27:c3:ba:
                    01:53:e1:f3:56:1e:90:c9:61:7e:73:37:36:80:49:
                    a9:b4:6a:9f:3a:d8:08:6f:ba:82:64:c5:85:92:41:
                    53:71:25:ec:18:85:1c:9e:80:4b:30:f7:16:b4:f8:
                    07:3e:f7:9b:aa:2d:9f:f8:08:a4:0a:e6:9e:0a:d2:
                    2f:06:59:28:53:9e:b4:77:8a:2b:f0:b5:c6:ca:af:
                    41:be:ed:17:12:0f:37:2e:e9:b8:43:3a:76:20:fd:
                    e8:81:91:b8:bf:03:92:76:1f:40:d3:e0:44:fd:34:
                    c7:f3:d4:f6:77:c9:52:59:da:37:95:ab:54:a7:11:
                    a5:1a:03:fa:cc:71:19:72:cb:29:39:15:69:b5:f6:
                    5b:16:22:d8:ed:a4:b3:b5:83:ed:69:d9:91:7f:2d:
                    0c:af:4f:c6:4a:4a:4f:1d:a3:dc:1f:10:f4:77:c8:
                    48:e5:94:64:3b:29:3d:9d:16:0c:d2:30:3a:44:0d:
                    a4:87:04:04:84:ec:fd:19:82:08:77:b5:77:64:f4:
                    ce:bc:6c:a5:c1:b7:17:7e:a2:4a:de:28:62:40:5e:
                    3d:77:5c:9a:09:dc:7e:a6:b6:a3:34:ca:73:a4:c2:
                    42:74:4e:d8:52:2d:98:4f:28:6e:89:93:7e:34:3b:
                    eb:37
                Exponent: 65537 (0x10001)
        X509v3 extensions:
            X509v3 Subject Key Identifier: 
                7F:75:3B:B2:1E:CF:EF:D6:A7:D1:42:F8:1C:A9:13:63:CF:C9:0E:5A
            X509v3 Authority Key Identifier: 
                7F:75:3B:B2:1E:CF:EF:D6:A7:D1:42:F8:1C:A9:13:63:CF:C9:0E:5A
            X509v3 Basic Constraints: critical
                CA:TRUE
    Signature Algorithm: sha256WithRSAEncryption
    Signature Value:
        0b:96:50:8a:82:d2:91:b9:d9:13:e5:38:ee:a8:f5:33:4c:1f:
        31:1b:1b:d9:3c:9c:83:c0:64:22:3c:79:4b:b2:35:44:4f:cd:
        93:63:05:ef:63:f7:98:fe:06:44:dc:be:f6:b7:3f:0e:40:18:
        5f:17:77:10:e3:61:dc:d0:ba:67:86:4b:5d:61:c9:34:d8:dd:
        33:22:f9:cf:82:f9:b6:34:19:eb:c7:9f:e0:02:0f:1b:85:6e:
        35:5f:5c:39:bc:20:d3:d7:96:89:bc:2f:a7:6f:c4:e1:17:77:
        e8:a7:50:a6:c1:17:fc:0d:82:19:6d:05:09:a4:d8:e0:37:5c:
        a6:4e:ca:9c:86:17:6d:90:95:74:60:33:5c:64:f2:cd:af:88:
        a3:d3:2c:57:d9:c3:1e:73:99:f2:b2:58:7c:fc:a3:44:2f:52:
        80:36:03:aa:3c:a8:07:60:6b:2b:66:6c:78:f9:3a:e1:28:2d:
        41:47:62:70:0f:8a:49:ce:6b:ee:2d:fd:f3:5c:2e:b0:0b:a5:
        f1:b2:0c:63:0d:f3:e6:9f:88:88:d0:ab:73:f4:fd:30:30:2a:
        c6:6b:6d:da:1f:d1:b7:09:18:bc:c9:04:87:3e:e5:87:65:4d:
        0f:74:a6:be:30:a6:9a:46:9b:20:48:2a:36:20:71:f0:7b:92:
        19:0d:ba:5b
-----BEGIN CERTIFICATE-----
MIID0TCCArmgAwIBAgIUa99CS8T5AQhn8ronoSEFjpFlRCcwDQYJKoZIhvcNAQEL
BQAwdzELMAkGA1UEBhMCQVUxEzARBgNVBAgMClNvbWUtU3RhdGUxGzAZBgNVBAoM
Ek90aGVyIFdpZGdpdHMsIExMQzERMA8GA1UEAwwIQ0EgT3duZXIxIzAhBgkqhkiG
9w0BCQEWFGNhLm93bmVyQGV4YW1wbGUubmV0MCAXDTIzMDgyOTEwNDk0M1oYDzIx
MjMwODI5MTA0OTQzWjB3MQswCQYDVQQGEwJBVTETMBEGA1UECAwKU29tZS1TdGF0
ZTEbMBkGA1UECgwST3RoZXIgV2lkZ2l0cywgTExDMREwDwYDVQQDDAhDQSBPd25l
cjEjMCEGCSqGSIb3DQEJARYUY2Eub3duZXJAZXhhbXBsZS5uZXQwggEiMA0GCSqG
SIb3DQEBAQUAA4IBDwAwggEKAoIBAQDWtlMEU+iYkcZqqyfDugFT4fNWHpDJYX5z
NzaASam0ap862AhvuoJkxYWSQVNxJewYhRyegEsw9xa0+Ac+95uqLZ/4CKQK5p4K
0i8GWShTnrR3iivwtcbKr0G+7RcSDzcu6bhDOnYg/eiBkbi/A5J2H0DT4ET9NMfz
1PZ3yVJZ2jeVq1SnEaUaA/rMcRlyyyk5FWm19lsWItjtpLO1g+1p2ZF/LQyvT8ZK
Sk8do9wfEPR3yEjllGQ7KT2dFgzSMDpEDaSHBASE7P0Zggh3tXdk9M68bKXBtxd+
okreKGJAXj13XJoJ3H6mtqM0ynOkwkJ0TthSLZhPKG6Jk340O+s3AgMBAAGjUzBR
MB0GA1UdDgQWBBR/dTuyHs/v1qfRQvgcqRNjz8kOWjAfBgNVHSMEGDAWgBR/dTuy
Hs/v1qfRQvgcqRNjz8kOWjAPBgNVHRMBAf8EBTADAQH/MA0GCSqGSIb3DQEBCwUA
A4IBAQALllCKgtKRudkT5TjuqPUzTB8xGxvZPJyDwGQiPHlLsjVET82TYwXvY/eY
/gZE3L72tz8OQBhfF3cQ42Hc0LpnhktdYck02N0zIvnPgvm2NBnrx5/gAg8bhW41
X1w5vCDT15aJvC+nb8ThF3fop1CmwRf8DYIZbQUJpNjgN1ymTsqchhdtkJV0YDNc
ZPLNr4ij0yxX2cMec5nyslh8/KNEL1KANgOqPKgHYGsrZmx4+TrhKC1BR2JwD4pJ
zmvuLf3zXC6wC6XxsgxjDfPmn4iI0Ktz9P0wMCrGa23aH9G3CRi8yQSHPuWHZU0P
dKa+MKaaRpsgSCo2IHHwe5IZDbpb
-----END CERTIFICATE-----
