Certificate:
    Data:
        Version: 3 (0x2)
        Serial Number: 16372135729078323798 (0xe33582b3ca31ca56)
    Signature Algorithm: sha1WithRSAEncryption
        Issuer: C=AU, ST=Some-State, O=Other Widgits, LLC, CN=CA Owner/emailAddress=ca.owner@example.net
        Validity
            Not Before: Aug 28 22:16:28 2013 GMT
            Not After : Aug 28 22:16:28 2023 GMT
        Subject: C=AU, ST=Some-State, O=Other Widgits, LLC, CN=CA Owner/emailAddress=ca.owner@example.net
        Subject Public Key Info:
            Public Key Algorithm: rsaEncryption
                Public-Key: (2048 bit)
                Modulus:
                    00:d6:b6:53:04:53:e8:98:91:c6:6a:ab:27:c3:ba:
                    01:53:e1:f3:56:1e:90:c9:61:7e:73:37:36:80:49:
                    a9:b4:6a:9f:3a:d8:08:6f:ba:82:64:c5:85:92:41:
                    53:71:25:ec:18:85:1c:9e:80:4b:30:f7:16:b4:f8:
                    07:3e:f7:9b:aa:2d:9f:f8:08:a4:0a:e6:9e:0a:d2:
                    2f:06:59:28:53:9e:b4:77:8a:2b:f0:b5:c6:ca:af:
                    41:be:ed:17:12:0f:37:2e:e9:b8:43:3a:76:20:fd:
                    e8:81:91:b8:bf:03:92:76:1f:40:d3:e0:44:fd:34:
                    c7:f3:d4:f6:77:c9:52:59:da:37:95:ab:54:a7:11:
                    a5:1a:03:fa:cc:71:19:72:cb:29:39:15:69:b5:f6:
                    5b:16:22:d8:ed:a4:b3:b5:83:ed:69:d9:91:7f:2d:
                    0c:af:4f:c6:4a:4a:4f:1d:a3:dc:1f:10:f4:77:c8:
                    48:e5:94:64:3b:29:3d:9d:16:0c:d2:30:3a:44:0d:
                    a4:87:04:04:84:ec:fd:19:82:08:77:b5:77:64:f4:
                    ce:bc:6c:a5:c1:b7:17:7e:a2:4a:de:28:62:40:5e:
                    3d:77:5c:9a:09:dc:7e:a6:b6:a3:34:ca:73:a4:c2:
                    42:74:4e:d8:52:2d:98:4f:28:6e:89:93:7e:34:3b:
                    eb:37
                Exponent: 65537 (0x10001)
        X509v3 extensions:
            X509v3 Subject Key Identifier: 
                7F:75:3B:B2:1E:CF:EF:D6:A7:D1:42:F8:1C:A9:13:63:CF:C9:0E:5A
            X509v3 Authority Key Identifier: 
                keyid:7F:75:3B:B2:1E:CF:EF:D6:A7:D1:42:F8:1C:A9:13:63:CF:C9:0E:5A

            X509v3 Basic Constraints: 
                CA:TRUE
    Signature Algorithm: sha1WithRSAEncryption
         44:f7:e8:e6:af:a9:be:cf:28:51:dc:86:14:e2:4d:e4:14:9f:
         09:4d:cb:e9:10:2c:ef:21:ec:b0:8c:14:57:59:45:52:b4:e3:
         db:f4:34:e3:39:b6:de:0c:eb:68:78:db:d0:21:d2:c1:51:18:
         ce:33:14:a4:4d:91:88:eb:cc:b0:4a:93:73:75:48:e8:56:ce:
         29:c9:07:73:18:28:20:e1:2e:ba:0f:cc:4c:26:e7:45:d5:4c:
         60:89:ef:1d:d7:7a:a5:80:62:bf:30:da:ac:bf:be:f8:54:f3:
         fc:8a:09:1c:89:2d:2a:12:20:99:66:54:a0:78:50:f0:46:44:
         9d:ad:95:81:83:c0:47:38:b8:4a:81:3c:72:49:68:a2:a1:04:
         c7:d3:e9:e8:6f:65:ce:10:11:7f:0a:8b:96:ce:4e:1e:55:c7:
         54:34:25:5e:ba:95:62:ad:45:43:b1:69:70:d4:c4:33:29:56:
         cd:45:08:7d:e5:1e:5c:77:55:7b:f7:34:ea:c5:d5:48:21:b1:
         71:a5:02:16:50:78:64:e4:01:85:28:3e:e4:b8:f6:f8:02:3d:
         01:23:ba:2c:54:c3:72:a5:2a:3d:41:fd:c1:15:60:37:0b:65:
         bf:23:bd:33:f6:d8:75:03:71:46:47:97:93:ae:bc:7f:76:1e:
         f3:5f:ba:0f
-----BEGIN CERTIFICATE-----
MIIDwTCCAqmgAwIBAgIJAOM1grPKMcpWMA0GCSqGSIb3DQEBBQUAMHcxCzAJBgNV
BAYTAkFVMRMwEQYDVQQIDApTb21lLVN0YXRlMRswGQYDVQQKDBJPdGhlciBXaWRn
aXRzLCBMTEMxETAPBgNVBAMMCENBIE93bmVyMSMwIQYJKoZIhvcNAQkBFhRjYS5v
d25lckBleGFtcGxlLm5ldDAeFw0xMzA4MjgyMjE2MjhaFw0yMzA4MjgyMjE2Mjha
MHcxCzAJBgNVBAYTAkFVMRMwEQYDVQQIDApTb21lLVN0YXRlMRswGQYDVQQKDBJP
dGhlciBXaWRnaXRzLCBMTEMxETAPBgNVBAMMCENBIE93bmVyMSMwIQYJKoZIhvcN
AQkBFhRjYS5vd25lckBleGFtcGxlLm5ldDCCASIwDQYJKoZIhvcNAQEBBQADggEP
ADCCAQoCggEBANa2UwRT6JiRxmqrJ8O6AVPh81YekMlhfnM3NoBJqbRqnzrYCG+6
gmTFhZJBU3El7BiFHJ6ASzD3FrT4Bz73m6otn/gIpArmngrSLwZZKFOetHeKK/C1
xsqvQb7tFxIPNy7puEM6diD96IGRuL8DknYfQNPgRP00x/PU9nfJUlnaN5WrVKcR
pRoD+sxxGXLLKTkVabX2WxYi2O2ks7WD7WnZkX8tDK9PxkpKTx2j3B8Q9HfISOWU
ZDspPZ0WDNIwOkQNpIcEBITs/RmCCHe1d2T0zrxspcG3F36iSt4oYkBePXdcmgnc
fqa2ozTKc6TCQnRO2FItmE8obomTfjQ76zcCAwEAAaNQME4wHQYDVR0OBBYEFH91
O7Iez+/Wp9FC+BypE2PPyQ5aMB8GA1UdIwQYMBaAFH91O7Iez+/Wp9FC+BypE2PP
yQ5aMAwGA1UdEwQFMAMBAf8wDQYJKoZIhvcNAQEFBQADggEBAET36Oavqb7PKFHc
hhTiTeQUnwlNy+kQLO8h7LCMFFdZRVK049v0NOM5tt4M62h429Ah0sFRGM4zFKRN
kYjrzLBKk3N1SOhWzinJB3MYKCDhLroPzEwm50XVTGCJ7x3XeqWAYr8w2qy/vvhU
8/yKCRyJLSoSIJlmVKB4UPBGRJ2tlYGDwEc4uEqBPHJJaKKhBMfT6ehvZc4QEX8K
i5bOTh5Vx1Q0JV66lWKtRUOxaXDUxDMpVs1FCH3lHlx3VXv3NOrF1UghsXGlAhZQ
eGTkAYUoPuS49vgCPQEjuixUw3KlKj1B/cEVYDcLZb8jvTP22HUDcUZHl5OuvH92
HvNfug8=
-----END CERTIFICATE-----
