Certificate:
    Data:
        Version: 3 (0x2)
        Serial Number: 11236924883769032812 (0x9bf193a560cd006c)
    Signature Algorithm: sha1WithRSAEncryption
        Issuer: C=AU, ST=Some-State, O=Internet Widgits Pty Ltd, CN=CA Owner/emailAddress=ca.owner@example.com
        Validity
            Not Before: Aug 28 21:19:44 2013 GMT
            Not After : Aug 26 21:19:44 2023 GMT
        Subject: C=AU, ST=Some-State, O=Internet Widgits Pty Ltd, CN=CA Owner/emailAddress=ca.owner@example.com
        Subject Public Key Info:
            Public Key Algorithm: rsaEncryption
                Public-Key: (1024 bit)
                Modulus:
                    00:be:cc:62:70:bf:42:ee:9d:f0:05:04:2b:05:46:
                    4e:c9:60:6a:b4:31:8c:a5:60:25:79:05:61:88:fe:
                    36:9e:63:24:bf:33:91:6f:6a:90:27:81:47:5e:2f:
                    49:54:19:c7:02:51:37:d9:ff:0b:9b:8a:cd:ed:7f:
                    b7:6b:bc:0a:de:e5:c8:32:f7:a4:16:51:d1:3f:a4:
                    02:96:98:09:83:e2:ed:81:19:bb:e3:d4:2b:f1:87:
                    97:03:08:05:e6:f7:65:c6:90:48:9d:75:07:31:93:
                    04:6d:09:b7:0f:df:fa:f2:b3:ff:e1:44:f4:18:03:
                    4f:59:b6:ba:d2:36:8b:0e:b3
                Exponent: 65537 (0x10001)
        X509v3 extensions:
            X509v3 Subject Key Identifier: 
                8D:1B:2D:BD:BD:24:E8:19:62:AE:4C:C9:2A:58:90:08:1C:D1:05:2B
            X509v3 Authority Key Identifier: 
                keyid:8D:1B:2D:BD:BD:24:E8:19:62:AE:4C:C9:2A:58:90:08:1C:D1:05:2B

            X509v3 Basic Constraints: 
                CA:TRUE
    Signature Algorithm: sha1WithRSAEncryption
         7b:f5:8f:d2:b9:44:34:fe:91:ab:1d:52:d3:10:2d:23:75:05:
         8e:17:70:be:52:11:b0:8e:ee:f6:33:50:7c:c7:82:f3:c4:d2:
         98:90:b3:a6:ad:00:33:36:dc:95:f4:4e:45:d2:09:e9:88:ae:
         88:a2:72:e4:75:95:7a:78:31:16:34:a3:50:e0:c9:25:7f:65:
         51:d4:59:20:23:d5:3e:35:79:cf:ed:3d:3c:8c:d1:79:b0:99:
         d3:6b:99:ed:32:c5:29:7a:82:8a:98:cb:c6:95:c7:52:59:7c:
         f8:1d:fd:18:b8:ef:4d:1f:9d:5d:09:b0:eb:68:50:ed:c0:21:
         61:eb
-----BEGIN CERTIFICATE-----
MIICyDCCAjGgAwIBAgIJAJvxk6VgzQBsMA0GCSqGSIb3DQEBBQUAMH0xCzAJBgNV
BAYTAkFVMRMwEQYDVQQIDApTb21lLVN0YXRlMSEwHwYDVQQKDBhJbnRlcm5ldCBX
aWRnaXRzIFB0eSBMdGQxETAPBgNVBAMMCENBIE93bmVyMSMwIQYJKoZIhvcNAQkB
FhRjYS5vd25lckBleGFtcGxlLmNvbTAeFw0xMzA4MjgyMTE5NDRaFw0yMzA4MjYy
MTE5NDRaMH0xCzAJBgNVBAYTAkFVMRMwEQYDVQQIDApTb21lLVN0YXRlMSEwHwYD
VQQKDBhJbnRlcm5ldCBXaWRnaXRzIFB0eSBMdGQxETAPBgNVBAMMCENBIE93bmVy
MSMwIQYJKoZIhvcNAQkBFhRjYS5vd25lckBleGFtcGxlLmNvbTCBnzANBgkqhkiG
9w0BAQEFAAOBjQAwgYkCgYEAvsxicL9C7p3wBQQrBUZOyWBqtDGMpWAleQVhiP42
nmMkvzORb2qQJ4FHXi9JVBnHAlE32f8Lm4rN7X+3a7wK3uXIMvekFlHRP6QClpgJ
g+LtgRm749Qr8YeXAwgF5vdlxpBInXUHMZMEbQm3D9/68rP/4UT0GANPWba60jaL
DrMCAwEAAaNQME4wHQYDVR0OBBYEFI0bLb29JOgZYq5MySpYkAgc0QUrMB8GA1Ud
IwQYMBaAFI0bLb29JOgZYq5MySpYkAgc0QUrMAwGA1UdEwQFMAMBAf8wDQYJKoZI
hvcNAQEFBQADgYEAe/WP0rlENP6Rqx1S0xAtI3UFjhdwvlIRsI7u9jNQfMeC88TS
mJCzpq0AMzbclfRORdIJ6YiuiKJy5HWVengxFjSjUODJJX9lUdRZICPVPjV5z+09
PIzRebCZ02uZ7TLFKXqCipjLxpXHUll8+B39GLjvTR+dXQmw62hQ7cAhYes=
-----END CERTIFICATE-----
