Certificate:
    Data:
        Version: 3 (0x2)
        Serial Number:
            8a:6a:cd:51:be:94:a0:14
        Signature Algorithm: sha1WithRSAEncryption
        Issuer: C=AU, ST=Some-State, O=Internet Widgits Pty Ltd, CN=CA Owner/emailAddress=ca.owner@example.com
        Validity
            Not Before: Feb  8 16:20:53 2010 GMT
            Not After : Feb  7 16:20:53 2013 GMT
        Subject: C=AU, ST=Some-State, O=Internet Widgits Pty Ltd, CN=CA Owner/emailAddress=ca.owner@example.com
        Subject Public Key Info:
            Public Key Algorithm: rsaEncryption
            RSA Public Key: (1024 bit)
                Modulus (1024 bit):
                    00:be:cc:62:70:bf:42:ee:9d:f0:05:04:2b:05:46:
                    4e:c9:60:6a:b4:31:8c:a5:60:25:79:05:61:88:fe:
                    36:9e:63:24:bf:33:91:6f:6a:90:27:81:47:5e:2f:
                    49:54:19:c7:02:51:37:d9:ff:0b:9b:8a:cd:ed:7f:
                    b7:6b:bc:0a:de:e5:c8:32:f7:a4:16:51:d1:3f:a4:
                    02:96:98:09:83:e2:ed:81:19:bb:e3:d4:2b:f1:87:
                    97:03:08:05:e6:f7:65:c6:90:48:9d:75:07:31:93:
                    04:6d:09:b7:0f:df:fa:f2:b3:ff:e1:44:f4:18:03:
                    4f:59:b6:ba:d2:36:8b:0e:b3
                Exponent: 65537 (0x10001)
        X509v3 extensions:
            X509v3 Subject Key Identifier: 
                8D:1B:2D:BD:BD:24:E8:19:62:AE:4C:C9:2A:58:90:08:1C:D1:05:2B
            X509v3 Authority Key Identifier: 
                keyid:8D:1B:2D:BD:BD:24:E8:19:62:AE:4C:C9:2A:58:90:08:1C:D1:05:2B
                DirName:/C=AU/ST=Some-State/O=Internet Widgits Pty Ltd/CN=CA Owner/emailAddress=ca.owner@example.com
                serial:8A:6A:CD:51:BE:94:A0:14

            X509v3 Basic Constraints: 
                CA:TRUE
    Signature Algorithm: sha1WithRSAEncryption
        bd:d5:97:ad:b6:1e:cf:e2:4c:be:02:a7:da:d4:ea:ff:2b:0d:
        dd:f5:23:ef:0a:9b:4d:45:ad:8b:67:52:e6:16:13:56:03:18:
        c8:2e:8d:de:b6:99:fd:0f:f0:fd:c3:6b:e2:db:5d:97:45:bb:
        12:bd:ef:eb:b7:2b:a2:68:46:96:30:c7:00:66:b6:f2:92:ba:
        24:0f:e7:ff:d7:3c:e2:9f:f3:db:44:14:62:54:56:db:43:f0:
        f1:b5:3a:ce:dc:17:ad:52:44:be:c4:d8:7c:3f:a6:fa:e8:4f:
        2c:ed:88:ad:a7:2d:0f:14:a4:76:70:67:9e:8b:45:51:3d:8b:
        4d:6b
-----BEGIN CERTIFICATE-----
MIIDXDCCAsWgAwIBAgIJAIpqzVG+lKAUMA0GCSqGSIb3DQEBBQUAMH0xCzAJBgNV
BAYTAkFVMRMwEQYDVQQIEwpTb21lLVN0YXRlMSEwHwYDVQQKExhJbnRlcm5ldCBX
aWRnaXRzIFB0eSBMdGQxETAPBgNVBAMTCENBIE93bmVyMSMwIQYJKoZIhvcNAQkB
FhRjYS5vd25lckBleGFtcGxlLmNvbTAeFw0xMDAyMDgxNjIwNTNaFw0xMzAyMDcx
NjIwNTNaMH0xCzAJBgNVBAYTAkFVMRMwEQYDVQQIEwpTb21lLVN0YXRlMSEwHwYD
VQQKExhJbnRlcm5ldCBXaWRnaXRzIFB0eSBMdGQxETAPBgNVBAMTCENBIE93bmVy
MSMwIQYJKoZIhvcNAQkBFhRjYS5vd25lckBleGFtcGxlLmNvbTCBnzANBgkqhkiG
9w0BAQEFAAOBjQAwgYkCgYEAvsxicL9C7p3wBQQrBUZOyWBqtDGMpWAleQVhiP42
nmMkvzORb2qQJ4FHXi9JVBnHAlE32f8Lm4rN7X+3a7wK3uXIMvekFlHRP6QClpgJ
g+LtgRm749Qr8YeXAwgF5vdlxpBInXUHMZMEbQm3D9/68rP/4UT0GANPWba60jaL
DrMCAwEAAaOB4zCB4DAdBgNVHQ4EFgQUjRstvb0k6BlirkzJKliQCBzRBSswgbAG
A1UdIwSBqDCBpYAUjRstvb0k6BlirkzJKliQCBzRBSuhgYGkfzB9MQswCQYDVQQG
EwJBVTETMBEGA1UECBMKU29tZS1TdGF0ZTEhMB8GA1UEChMYSW50ZXJuZXQgV2lk
Z2l0cyBQdHkgTHRkMREwDwYDVQQDEwhDQSBPd25lcjEjMCEGCSqGSIb3DQEJARYU
Y2Eub3duZXJAZXhhbXBsZS5jb22CCQCKas1RvpSgFDAMBgNVHRMEBTADAQH/MA0G
CSqGSIb3DQEBBQUAA4GBAL3Vl622Hs/iTL4Cp9rU6v8rDd31I+8Km01FrYtnUuYW
E1YDGMgujd62mf0P8P3Da+LbXZdFuxK97+u3K6JoRpYwxwBmtvKSuiQP5//XPOKf
89tEFGJUVttD8PG1Os7cF61SRL7E2Hw/pvroTyztiK2nLQ8UpHZwZ56LRVE9i01r
-----END CERTIFICATE-----
