Certificate:
    Data:
        Version: 3 (0x2)
        Serial Number:
            6c:5a:84:c5:d2:ee:02:8e:2f:db:de:25:04:2c:8a:42:36:89:ed:4c
        Signature Algorithm: sha256WithRSAEncryption
        Issuer: C = AU, ST = Some-State, O = Internet Widgits Pty Ltd, CN = CA Owner, emailAddress = ca.owner@example.com
        Validity
            Not Before: Aug 29 10:48:56 2023 GMT
            Not After : Aug 29 10:48:56 2123 GMT
        Subject: C = AU, ST = Some-State, O = Internet Widgits Pty Ltd, CN = CA Owner, emailAddress = ca.owner@example.com
        Subject Public Key Info:
            Public Key Algorithm: rsaEncryption
                Public-Key: (1024 bit)
                Modulus:
                    00:be:cc:62:70:bf:42:ee:9d:f0:05:04:2b:05:46:
                    4e:c9:60:6a:b4:31:8c:a5:60:25:79:05:61:88:fe:
                    36:9e:63:24:bf:33:91:6f:6a:90:27:81:47:5e:2f:
                    49:54:19:c7:02:51:37:d9:ff:0b:9b:8a:cd:ed:7f:
                    b7:6b:bc:0a:de:e5:c8:32:f7:a4:16:51:d1:3f:a4:
                    02:96:98:09:83:e2:ed:81:19:bb:e3:d4:2b:f1:87:
                    97:03:08:05:e6:f7:65:c6:90:48:9d:75:07:31:93:
                    04:6d:09:b7:0f:df:fa:f2:b3:ff:e1:44:f4:18:03:
                    4f:59:b6:ba:d2:36:8b:0e:b3
                Exponent: 65537 (0x10001)
        X509v3 extensions:
            X509v3 Subject Key Identifier: 
                8D:1B:2D:BD:BD:24:E8:19:62:AE:4C:C9:2A:58:90:08:1C:D1:05:2B
            X509v3 Authority Key Identifier: 
                8D:1B:2D:BD:BD:24:E8:19:62:AE:4C:C9:2A:58:90:08:1C:D1:05:2B
            X509v3 Basic Constraints: critical
                CA:TRUE
    Signature Algorithm: sha256WithRSAEncryption
    Signature Value:
        2f:76:27:06:f5:76:bb:de:cf:a5:51:8a:07:2f:b2:f9:87:3e:
        23:ec:ee:70:38:33:ac:fb:c9:61:e6:60:3e:27:11:62:ca:61:
        7b:15:1f:73:2a:5e:d3:ff:8c:8e:ee:20:74:71:b9:ac:5c:b6:
        e5:bb:39:00:80:03:09:1d:2d:80:9a:e0:3f:d5:4b:b6:ed:b1:
        7b:ea:c5:45:63:79:84:55:92:2f:96:1f:eb:7d:31:46:c5:a4:
        d3:dd:66:9d:b5:e9:75:97:98:b5:4b:81:26:92:eb:90:f6:aa:
        77:f7:32:e1:4a:7b:c3:8d:e3:b4:0b:f4:97:f4:c4:a1:cc:ac:
        7a:09
-----BEGIN CERTIFICATE-----
MIIC2DCCAkGgAwIBAgIUbFqExdLuAo4v294lBCyKQjaJ7UwwDQYJKoZIhvcNAQEL
BQAwfTELMAkGA1UEBhMCQVUxEzARBgNVBAgMClNvbWUtU3RhdGUxITAfBgNVBAoM
GEludGVybmV0IFdpZGdpdHMgUHR5IEx0ZDERMA8GA1UEAwwIQ0EgT3duZXIxIzAh
BgkqhkiG9w0BCQEWFGNhLm93bmVyQGV4YW1wbGUuY29tMCAXDTIzMDgyOTEwNDg1
NloYDzIxMjMwODI5MTA0ODU2WjB9MQswCQYDVQQGEwJBVTETMBEGA1UECAwKU29t
ZS1TdGF0ZTEhMB8GA1UECgwYSW50ZXJuZXQgV2lkZ2l0cyBQdHkgTHRkMREwDwYD
VQQDDAhDQSBPd25lcjEjMCEGCSqGSIb3DQEJARYUY2Eub3duZXJAZXhhbXBsZS5j
b20wgZ8wDQYJKoZIhvcNAQEBBQADgY0AMIGJAoGBAL7MYnC/Qu6d8AUEKwVGTslg
arQxjKVgJXkFYYj+Np5jJL8zkW9qkCeBR14vSVQZxwJRN9n/C5uKze1/t2u8Ct7l
yDL3pBZR0T+kApaYCYPi7YEZu+PUK/GHlwMIBeb3ZcaQSJ11BzGTBG0Jtw/f+vKz
/+FE9BgDT1m2utI2iw6zAgMBAAGjUzBRMB0GA1UdDgQWBBSNGy29vSToGWKuTMkq
WJAIHNEFKzAfBgNVHSMEGDAWgBSNGy29vSToGWKuTMkqWJAIHNEFKzAPBgNVHRMB
Af8EBTADAQH/MA0GCSqGSIb3DQEBCwUAA4GBAC92Jwb1drvez6VRigcvsvmHPiPs
7nA4M6z7yWHmYD4nEWLKYXsVH3MqXtP/jI7uIHRxuaxctuW7OQCAAwkdLYCa4D/V
S7btsXvqxUVjeYRVki+WH+t9MUbFpNPdZp216XWXmLVLgSaS65D2qnf3MuFKe8ON
47QL9Jf0xKHMrHoJ
-----END CERTIFICATE-----
